(dp0
Vengine
p1
S'pdflatex'
p2
sVsynctex
p3
I01
sVpackages
p4
c__builtin__
set
p5
((lp6
Vkotex
p7
aVenumitem
p8
aVmathptmx
p9
aValgorithm
p10
aVamsmath
p11
aValgpseudocode
p12
aVmultirow
p13
aVamsthm
p14
aVsuthesis-2e
p15
aVthmtools
p16
aVamsfonts
p17
aVgraphicx
p18
aVamssymb
p19
atp20
Rp21
sVfiles_with_guttermarks
p22
g5
((lp23
V/Users/haden/stanford/thesis/main/./600_GT.tex
p24
aV/Users/haden/stanford/thesis/main/400_GASP.tex
p25
aV/Users/haden/stanford/thesis/main/200_BDoodle.tex
p26
aV/Users/haden/stanford/thesis/main/thesis.tex
p27
aV/Users/haden/stanford/thesis/main/./thesis.tex
p28
aV/Users/haden/stanford/thesis/main/./200_BDoodle.tex
p29
aV/Users/haden/stanford/thesis/main/500_SIP.tex
p30
aV/Users/haden/stanford/thesis/main/./500_SIP.tex
p31
aV/Users/haden/stanford/thesis/main/000_abstract.tex
p32
aV/Users/haden/stanford/thesis/main/./100_Intro.tex
p33
aV/Users/haden/stanford/thesis/main/300_Matrix.tex
p34
aV/Users/haden/stanford/thesis/main/600_GT.tex
p35
aV/Users/haden/stanford/thesis/main/./300_Matrix.tex
p36
aV/Users/haden/stanford/thesis/main/./000_abstract.tex
p37
aV/Users/haden/stanford/thesis/main/100_Intro.tex
p38
aS'thesis.tex'
p39
atp40
Rp41
s.