(dp0
Vengine
p1
S'pdflatex'
p2
sVpackages
p3
c__builtin__
set
p4
((lp5
Vkotex
p6
aVenumitem
p7
aVmathptmx
p8
aValgorithm
p9
aVamsmath
p10
aValgpseudocode
p11
aVmultirow
p12
aVamsthm
p13
aVsuthesis-2e
p14
aVthmtools
p15
aVamsfonts
p16
aVgraphicx
p17
aVamssymb
p18
atp19
Rp20
sVfiles_with_guttermarks
p21
g4
((lp22
V/Users/haden/stanford/thesis/main/./600_GT.tex
p23
aV/Users/haden/stanford/thesis/main/./000_abstract.tex
p24
aV/Users/haden/stanford/thesis/main/400_GASP.tex
p25
aV/Users/haden/stanford/thesis/main/200_BDoodle.tex
p26
aV/Users/haden/stanford/thesis/main/thesis.tex
p27
aV/Users/haden/stanford/thesis/main/./thesis.tex
p28
aV/Users/haden/stanford/thesis/main/./200_BDoodle.tex
p29
aV/Users/haden/stanford/thesis/main/500_SIP.tex
p30
aV/Users/haden/stanford/thesis/main/./500_SIP.tex
p31
aV/Users/haden/stanford/thesis/main/000_abstract.tex
p32
aV/Users/haden/stanford/thesis/main/300_Matrix.tex
p33
aV/Users/haden/stanford/thesis/main/./300_Matrix.tex
p34
aV/Users/haden/stanford/thesis/main/600_GT.tex
p35
aS'thesis.tex'
p36
atp37
Rp38
sVsynctex
p39
I01
s.